; Function Attrs: mustprogress uwtable
define void @_ZN6icu_7511TailoredSet9addPrefixEPKNS_13CollationDataERKNS_13UnicodeStringEij(ptr noundef nonnull align 8 dereferenceable(100) %this, ptr noundef %d, ptr noundef nonnull align 8 dereferenceable(64) %pfx, i32 noundef %c, i32 noundef %ce32) local_unnamed_addr #0 align 2 personality ptr @__gxx_personality_v0 {
entry:
  %ref.tmp = alloca %"class.icu_75::UnicodeString", align 8
  %unreversedPrefix.i = getelementptr inbounds i8, ptr %this, i64 24
  %call.i = tail call noundef nonnull align 8 dereferenceable(64) ptr @_ZN6icu_7513UnicodeStringaSERKS0_(ptr noundef nonnull align 8 dereferenceable(64) %unreversedPrefix.i, ptr noundef nonnull align 8 dereferenceable(64) %pfx)
  %fUnion.i.i.i.i = getelementptr inbounds i8, ptr %this, i64 32
  %0 = load i16, ptr %fUnion.i.i.i.i, align 8
  %cmp.i.i.i.i = icmp slt i16 %0, 0
  %1 = ashr i16 %0, 5
  %shr.i.i.i.i = sext i16 %1 to i32
  %fLength.i.i.i = getelementptr inbounds i8, ptr %this, i64 36
  %2 = load i32, ptr %fLength.i.i.i, align 4
  %cond.i.i.i = select i1 %cmp.i.i.i.i, i32 %2, i32 %shr.i.i.i.i
  %call2.i.i = tail call noundef nonnull align 8 dereferenceable(64) ptr @_ZN6icu_7513UnicodeString9doReverseEii(ptr noundef nonnull align 8 dereferenceable(64) %unreversedPrefix.i, i32 noundef 0, i32 noundef %cond.i.i.i)
  %call = tail call noundef i32 @_ZNK6icu_7513CollationData12getFinalCE32Ej(ptr noundef nonnull align 8 dereferenceable(140) %d, i32 noundef %ce32)
  %3 = and i32 %call, 207
  %narrow.i.i.not = icmp eq i32 %3, 201
  br i1 %narrow.i.i.not, label %if.then, label %if.end

if.then:                                          ; preds = %entry
  %contexts = getelementptr inbounds i8, ptr %d, i64 24
  %4 = load ptr, ptr %contexts, align 8
  %shr.i = lshr i32 %call, 13
  %idx.ext = zext nneg i32 %shr.i to i64
  %add.ptr = getelementptr inbounds i16, ptr %4, i64 %idx.ext
  %add.ptr4 = getelementptr inbounds i8, ptr %add.ptr, i64 4
  tail call void @_ZN6icu_7511TailoredSet15addContractionsEiPKDs(ptr noundef nonnull align 8 dereferenceable(100) %this, i32 noundef %c, ptr noundef nonnull %add.ptr4)
  br label %if.end

if.end:                                           ; preds = %if.then, %entry
  %tailored = getelementptr inbounds i8, ptr %this, i64 16
  %5 = load ptr, ptr %tailored, align 8
  call void @_ZN6icu_7513UnicodeStringC1ERKS0_(ptr noundef nonnull align 8 dereferenceable(64) %ref.tmp, ptr noundef nonnull align 8 dereferenceable(64) %unreversedPrefix.i)
  %call5 = invoke noundef nonnull align 8 dereferenceable(64) ptr @_ZN6icu_7513UnicodeString6appendEi(ptr noundef nonnull align 8 dereferenceable(64) %ref.tmp, i32 noundef %c)
          to label %invoke.cont unwind label %lpad

invoke.cont:                                      ; preds = %if.end
  %call7 = invoke noundef nonnull align 8 dereferenceable(200) ptr @_ZN6icu_7510UnicodeSet3addERKNS_13UnicodeStringE(ptr noundef nonnull align 8 dereferenceable(200) %5, ptr noundef nonnull align 8 dereferenceable(64) %call5)
          to label %invoke.cont6 unwind label %lpad

invoke.cont6:                                     ; preds = %invoke.cont
  call void @_ZN6icu_7513UnicodeStringD1Ev(ptr noundef nonnull align 8 dereferenceable(64) %ref.tmp) #9
  %6 = load i16, ptr %fUnion.i.i.i.i, align 8
  %conv2.i3.i.i = and i16 %6, 1
  %tobool.not.i.i = icmp eq i16 %conv2.i3.i.i, 0
  %7 = and i16 %6, 30
  %storemerge.i.i = select i1 %tobool.not.i.i, i16 %7, i16 2
  store i16 %storemerge.i.i, ptr %fUnion.i.i.i.i, align 8
  ret void

lpad:                                             ; preds = %invoke.cont, %if.end
  %8 = landingpad { ptr, i32 }
          cleanup
  call void @_ZN6icu_7513UnicodeStringD1Ev(ptr noundef nonnull align 8 dereferenceable(64) %ref.tmp) #9
  resume { ptr, i32 } %8
}